; Function Attrs: mustprogress nounwind uwtable
define hidden noundef ptr @_ZN22SystemDictionaryShared20get_shared_nest_hostEP13InstanceKlass(ptr nocapture noundef readonly %0) local_unnamed_addr #0 align 2 {
  %2 = getelementptr inbounds i8, ptr %0, i64 -8
  %3 = load ptr, ptr %2, align 8
  %4 = load ptr, ptr %3, align 8
  %5 = tail call noundef i64 @_ZN16RunTimeClassInfo8crc_sizeEP13InstanceKlass(ptr noundef %4) #18
  %6 = getelementptr i8, ptr %3, i64 %5
  %7 = getelementptr i8, ptr %6, i64 16
  %8 = load ptr, ptr %7, align 8
  ret ptr %8
}